target datalayout = "e-m:e-p270:32:32-p271:32:32-p272:64:64-i64:64-i128:128-f80:128-n8:16:32:64-S128"
target triple = "x86_64-pc-linux-gnu"

%struct.redisServer = type { i32, i64, ptr, ptr, ptr, i32, i32, i32, i32, i32, ptr, ptr, ptr, ptr, ptr, i32, i32, i32, i32, i64, i32, i32, i32, i32, ptr, i32, i32, [41 x i8], i32, i64, i32, i32, i32, ptr, ptr, i32, i32, i64, ptr, ptr, ptr, ptr, [2 x i32], i32, i32, i32, i32, i32, i32, [16 x ptr], i32, ptr, ptr, i32, [8 x %struct.connListener], i32, %struct.connListener, ptr, ptr, ptr, ptr, ptr, ptr, ptr, ptr, ptr, ptr, i32, ptr, i32, ptr, [3 x %struct.pause_event], [256 x i8], ptr, i64, i32, i32, [128 x i32], i32, i32, i64, i32, i32, i32, i32, i32, i64, i64, i64, i64, i64, i64, i64, i64, i64, i64, double, i64, i64, i64, i64, i64, i64, i64, i64, i64, i64, i64, i64, i64, i64, i64, i64, i64, i64, i64, i64, i64, double, i64, i64, i64, i64, i64, ptr, i64, i64, i64, %struct.malloc_stats, i64, i64, i64, i64, i64, i64, i64, i64, i64, i64, i64, i64, double, [4 x i64], i64, i64, i64, i64, [128 x i64], [128 x i64], i64, i64, [7 x %struct.anon], i64, i64, i64, i64, i64, i64, [4 x %struct.durationStats], i32, i32, i32, i32, i32, i32, i32, i32, i32, i32, i32, i32, i64, i32, i32, i32, i32, i64, i64, i32, i32, i32, i32, i32, ptr, [3 x %struct.clientBufferLimitsConfig], i32, i32, i32, ptr, i32, i32, i32, i32, i32, i32, ptr, ptr, i32, i32, i64, i64, i64, i64, i64, i32, i32, ptr, i32, i32, i64, i64, i64, i64, i64, i32, i32, i64, i32, i32, i32, i32, i32, i32, i32, i32, ptr, i32, i64, i64, i64, i64, i32, ptr, i32, ptr, i32, i32, i32, i64, i64, i64, i64, i32, i32, i32, i32, i32, i32, ptr, i32, i32, ptr, i32, i32, i32, [2 x i32], i32, %struct.redisOpArray, i32, ptr, i32, ptr, i32, i32, i32, i32, i32, i32, i32, [41 x i8], [41 x i8], i64, i64, i64, i64, i32, i32, ptr, i64, i64, %struct.replDataBuf, i64, i64, i32, i32, i32, i32, i32, i32, i32, i32, i32, i64, ptr, i64, ptr, ptr, ptr, i32, i32, ptr, ptr, i32, i32, i32, i64, i64, i64, i64, ptr, ptr, i32, ptr, i64, i32, i32, i32, i64, i32, i32, i32, i32, ptr, i32, i32, [41 x i8], i64, i32, ptr, i32, i32, i64, i64, i32, i32, i32, i32, i32, i64, [3 x i32], i32, i32, i32, [10 x i32], ptr, ptr, i32, i64, ptr, ptr, i32, i32, i32, i32, i64, i64, i64, i64, i64, i64, i64, i64, i64, i64, i32, i32, i64, i64, i32, i64, i64, i64, i64, i64, ptr, ptr, i32, ptr, i32, i32, i32, i32, i64, i64, ptr, ptr, i32, i32, i32, i32, i32, ptr, ptr, ptr, i32, i32, i32, i32, i32, i32, i32, i64, i32, i32, i64, i32, i32, i32, i32, i32, i32, i32, i64, ptr, ptr, i64, ptr, i32, %struct.aclInfo, i32, i64, i32, i32, i32, %struct.redisTLSContextConfig, ptr, ptr, ptr, ptr, ptr, i64, i32, ptr, i32, i32, i32, i64, i32, ptr }
%struct.connListener = type { [16 x i32], i32, ptr, i32, i32, ptr, ptr }
%struct.pause_event = type { i32, i64 }
%struct.malloc_stats = type { i64, i64, i64, i64, i64, i64, i64, i64, i64, i64, i64 }
%struct.anon = type { i64, i64, [16 x i64], i32 }
%struct.durationStats = type { i64, i64, i64 }
%struct.clientBufferLimitsConfig = type { i64, i64, i64 }
%struct.redisOpArray = type { ptr, i32, i32 }
%struct.replDataBuf = type { ptr, i64, i64, i64, i64 }
%struct.aclInfo = type { i64, i64, i64, i64 }
%struct.redisTLSContextConfig = type { ptr, ptr, ptr, ptr, ptr, ptr, ptr, ptr, ptr, ptr, ptr, ptr, i32, i32, i32, i32 }
%struct._rio = type { ptr, ptr, ptr, ptr, ptr, i64, i64, i64, i64, %union.anon }
%union.anon = type { %struct.anon.2 }
%struct.anon.2 = type { ptr, i64, ptr, i64, i64 }

@server = external global %struct.redisServer, align 8

; Function Attrs: nounwind uwtable
define dso_local void @loadingAbsProgress(i64 noundef %0) #0 {
  %2 = alloca i64, align 8
  store i64 %0, ptr %2, align 8, !tbaa !56
  %3 = load i64, ptr %2, align 8, !tbaa !56
  store i64 %3, ptr getelementptr inbounds nuw (%struct.redisServer, ptr @server, i32 0, i32 88), align 8, !tbaa !12
  %4 = load i64, ptr getelementptr inbounds nuw (%struct.redisServer, ptr @server, i32 0, i32 113), align 8, !tbaa !280
  %5 = call i64 @zmalloc_used_memory()
  %6 = icmp ult i64 %4, %5
  br i1 %6, label %7, label %9

7:                                                ; preds = %1
  %8 = call i64 @zmalloc_used_memory()
  store i64 %8, ptr getelementptr inbounds nuw (%struct.redisServer, ptr @server, i32 0, i32 113), align 8, !tbaa !280
  br label %9

9:                                                ; preds = %7, %1
  ret void
}

; Function Attrs: nounwind uwtable
define dso_local void @rdbLoadProgressCallback(ptr noundef %0, ptr noundef %1, i64 noundef %2) #0 {
  %4 = alloca ptr, align 8
  %5 = alloca ptr, align 8
  %6 = alloca i64, align 8
  %7 = alloca i64, align 8
  %8 = alloca i64, align 8
  store ptr %0, ptr %4, align 8, !tbaa !53
  store ptr %1, ptr %5, align 8, !tbaa !55
  store i64 %2, ptr %6, align 8, !tbaa !56
  %9 = load i32, ptr getelementptr inbounds nuw (%struct.redisServer, ptr @server, i32 0, i32 236), align 4, !tbaa !203
  %10 = icmp ne i32 %9, 0
  br i1 %10, label %11, label %15

11:                                               ; preds = %3
  %12 = load ptr, ptr %4, align 8, !tbaa !53
  %13 = load ptr, ptr %5, align 8, !tbaa !55
  %14 = load i64, ptr %6, align 8, !tbaa !56
  call void @rioGenericUpdateChecksum(ptr noundef %12, ptr noundef %13, i64 noundef %14)
  br label %15

15:                                               ; preds = %11, %3
  %16 = load i64, ptr getelementptr inbounds nuw (%struct.redisServer, ptr @server, i32 0, i32 90), align 8, !tbaa !281
  %17 = icmp ne i64 %16, 0
  br i1 %17, label %18, label %43

18:                                               ; preds = %15
  %19 = load ptr, ptr %4, align 8, !tbaa !53
  %20 = getelementptr inbounds nuw %struct._rio, ptr %19, i32 0, i32 7
  %21 = load i64, ptr %20, align 8, !tbaa !62
  %22 = load i64, ptr %6, align 8, !tbaa !56
  %23 = add i64 %21, %22
  %24 = load i64, ptr getelementptr inbounds nuw (%struct.redisServer, ptr @server, i32 0, i32 90), align 8, !tbaa !281
  %25 = udiv i64 %23, %24
  %26 = load ptr, ptr %4, align 8, !tbaa !53
  %27 = getelementptr inbounds nuw %struct._rio, ptr %26, i32 0, i32 7
  %28 = load i64, ptr %27, align 8, !tbaa !62
  %29 = load i64, ptr getelementptr inbounds nuw (%struct.redisServer, ptr @server, i32 0, i32 90), align 8, !tbaa !281
  %30 = udiv i64 %28, %29
  %31 = icmp ugt i64 %25, %30
  br i1 %31, label %32, label %43

32:                                               ; preds = %18
  %33 = load ptr, ptr getelementptr inbounds nuw (%struct.redisServer, ptr @server, i32 0, i32 297), align 8, !tbaa !282
  %34 = icmp ne ptr %33, null
  br i1 %34, label %35, label %39

35:                                               ; preds = %32
  %36 = load i32, ptr getelementptr inbounds nuw (%struct.redisServer, ptr @server, i32 0, i32 303), align 4, !tbaa !283
  %37 = icmp eq i32 %36, 11
  br i1 %37, label %38, label %39

38:                                               ; preds = %35
  call void @replicationSendNewlineToMaster()
  br label %39

39:                                               ; preds = %38, %35, %32
  %40 = load ptr, ptr %4, align 8, !tbaa !53
  %41 = getelementptr inbounds nuw %struct._rio, ptr %40, i32 0, i32 7
  %42 = load i64, ptr %41, align 8, !tbaa !62
  call void @loadingAbsProgress(i64 noundef %42)
  call void @processEventsWhileBlocked()
  call void @processModuleLoadingProgressEvent(i32 noundef 0)
  br label %43

43:                                               ; preds = %39, %18, %15
  %44 = load i32, ptr getelementptr inbounds nuw (%struct.redisServer, ptr @server, i32 0, i32 303), align 4, !tbaa !283
  %45 = icmp eq i32 %44, 11
  br i1 %45, label %46, label %55

46:                                               ; preds = %43
  %47 = load ptr, ptr %4, align 8, !tbaa !53
  %48 = call zeroext i8 @rioCheckType(ptr noundef %47)
  %49 = zext i8 %48 to i32
  %50 = icmp eq i32 %49, 4
  br i1 %50, label %51, label %55

51:                                               ; preds = %46
  %52 = load i64, ptr %6, align 8, !tbaa !56
  store i64 %52, ptr %7, align 8, !tbaa !68
  %53 = load i64, ptr %7, align 8
  %54 = atomicrmw add ptr getelementptr inbounds nuw (%struct.redisServer, ptr @server, i32 0, i32 131), i64 %53 monotonic, align 8
  store i64 %54, ptr %8, align 8
  br label %55

55:                                               ; preds = %51, %46, %43
  ret void
}