; Function Attrs: nounwind uwtable
define dso_local void @rdbLoadProgressCallback(ptr noundef %0, ptr noundef %1, i64 noundef %2) #0 {
  %4 = load i32, ptr getelementptr inbounds nuw (i8, ptr @server, i64 6788), align 4, !tbaa !164
  %.not = icmp eq i32 %4, 0
  br i1 %.not, label %6, label %5

5:                                                ; preds = %3
  tail call void @rioGenericUpdateChecksum(ptr noundef %0, ptr noundef %1, i64 noundef %2) #23
  br label %6

6:                                                ; preds = %5, %3
  %7 = load i64, ptr getelementptr inbounds nuw (i8, ptr @server, i64 2456), align 8, !tbaa !230
  %.not10 = icmp eq i64 %7, 0
  br i1 %.not10, label %28, label %8

8:                                                ; preds = %6
  %9 = getelementptr inbounds nuw i8, ptr %0, i64 56
  %10 = load i64, ptr %9, align 8, !tbaa !58
  %11 = add i64 %10, %2
  %12 = udiv i64 %11, %7
  %13 = udiv i64 %10, %7
  %14 = icmp ugt i64 %12, %13
  br i1 %14, label %15, label %28

15:                                               ; preds = %8
  %16 = load ptr, ptr getelementptr inbounds nuw (i8, ptr @server, i64 7264), align 8, !tbaa !231
  %17 = icmp ne ptr %16, null
  %18 = load i32, ptr getelementptr inbounds nuw (i8, ptr @server, i64 7300), align 4
  %19 = icmp eq i32 %18, 11
  %or.cond = select i1 %17, i1 %19, i1 false
  br i1 %or.cond, label %20, label %21

20:                                               ; preds = %15
  tail call void @replicationSendNewlineToMaster() #23
  %.pre = load i64, ptr %9, align 8, !tbaa !58
  br label %21

21:                                               ; preds = %20, %15
  %22 = phi i64 [ %.pre, %20 ], [ %10, %15 ]
  store i64 %22, ptr getelementptr inbounds nuw (i8, ptr @server, i64 2440), align 8, !tbaa !5
  %23 = load i64, ptr getelementptr inbounds nuw (i8, ptr @server, i64 2640), align 8, !tbaa !229
  %24 = tail call i64 @zmalloc_used_memory() #23
  %25 = icmp ult i64 %23, %24
  br i1 %25, label %26, label %loadingAbsProgress.exit

26:                                               ; preds = %21
  %27 = tail call i64 @zmalloc_used_memory() #23
  store i64 %27, ptr getelementptr inbounds nuw (i8, ptr @server, i64 2640), align 8, !tbaa !229
  br label %loadingAbsProgress.exit

loadingAbsProgress.exit:                          ; preds = %21, %26
  tail call void @processEventsWhileBlocked() #23
  tail call void @processModuleLoadingProgressEvent(i32 noundef 0) #23
  br label %28

28:                                               ; preds = %loadingAbsProgress.exit, %8, %6
  %29 = load i32, ptr getelementptr inbounds nuw (i8, ptr @server, i64 7300), align 4, !tbaa !232
  %30 = icmp eq i32 %29, 11
  br i1 %30, label %31, label %36

31:                                               ; preds = %28
  %32 = tail call zeroext i8 @rioCheckType(ptr noundef %0) #23
  %33 = icmp eq i8 %32, 4
  br i1 %33, label %34, label %36

34:                                               ; preds = %31
  %35 = atomicrmw add ptr getelementptr inbounds nuw (i8, ptr @server, i64 2864), i64 %2 monotonic, align 8
  br label %36

36:                                               ; preds = %34, %31, %28
  ret void
}